target datalayout = "e-m:e-p270:32:32-p271:32:32-p272:64:64-i64:64-i128:128-f80:128-n8:16:32:64-S128"
target triple = "x86_64-pc-linux-gnu"

; Function Attrs: mustprogress nounwind uwtable
define linkonce_odr noundef i32 @_Z6duRGBAiiii(i32 noundef %0, i32 noundef %1, i32 noundef %2, i32 noundef %3) #0 comdat {
  %5 = alloca i32, align 4
  %6 = alloca i32, align 4
  %7 = alloca i32, align 4
  %8 = alloca i32, align 4
  store i32 %0, ptr %5, align 4
  store i32 %1, ptr %6, align 4
  store i32 %2, ptr %7, align 4
  store i32 %3, ptr %8, align 4
  %9 = load i32, ptr %5, align 4
  %10 = load i32, ptr %6, align 4
  %11 = shl i32 %10, 8
  %12 = or i32 %9, %11
  %13 = load i32, ptr %7, align 4
  %14 = shl i32 %13, 16
  %15 = or i32 %12, %14
  %16 = load i32, ptr %8, align 4
  %17 = shl i32 %16, 24
  %18 = or i32 %15, %17
  ret i32 %18
}

; Function Attrs: mustprogress nounwind uwtable
define linkonce_odr noundef i32 @_Z3bitii(i32 noundef %0, i32 noundef %1) #0 comdat {
  %3 = alloca i32, align 4
  %4 = alloca i32, align 4
  store i32 %0, ptr %3, align 4
  store i32 %1, ptr %4, align 4
  %5 = load i32, ptr %3, align 4
  %6 = load i32, ptr %4, align 4
  %7 = shl i32 1, %6
  %8 = and i32 %5, %7
  %9 = load i32, ptr %4, align 4
  %10 = ashr i32 %8, %9
  ret i32 %10
}

; Function Attrs: mustprogress uwtable
define noundef i32 @_Z10duIntToColii(i32 noundef %0, i32 noundef %1) #2 {
  %3 = alloca i32, align 4
  %4 = alloca i32, align 4
  %5 = alloca i32, align 4
  %6 = alloca i32, align 4
  %7 = alloca i32, align 4
  store i32 %0, ptr %3, align 4
  store i32 %1, ptr %4, align 4
  %8 = load i32, ptr %3, align 4
  %9 = call noundef i32 @_Z3bitii(i32 noundef %8, i32 noundef 1)
  %10 = load i32, ptr %3, align 4
  %11 = call noundef i32 @_Z3bitii(i32 noundef %10, i32 noundef 3)
  %12 = mul nsw i32 %11, 2
  %13 = add nsw i32 %9, %12
  %14 = add nsw i32 %13, 1
  store i32 %14, ptr %5, align 4
  %15 = load i32, ptr %3, align 4
  %16 = call noundef i32 @_Z3bitii(i32 noundef %15, i32 noundef 2)
  %17 = load i32, ptr %3, align 4
  %18 = call noundef i32 @_Z3bitii(i32 noundef %17, i32 noundef 4)
  %19 = mul nsw i32 %18, 2
  %20 = add nsw i32 %16, %19
  %21 = add nsw i32 %20, 1
  store i32 %21, ptr %6, align 4
  %22 = load i32, ptr %3, align 4
  %23 = call noundef i32 @_Z3bitii(i32 noundef %22, i32 noundef 0)
  %24 = load i32, ptr %3, align 4
  %25 = call noundef i32 @_Z3bitii(i32 noundef %24, i32 noundef 5)
  %26 = mul nsw i32 %25, 2
  %27 = add nsw i32 %23, %26
  %28 = add nsw i32 %27, 1
  store i32 %28, ptr %7, align 4
  %29 = load i32, ptr %5, align 4
  %30 = mul nsw i32 %29, 63
  %31 = load i32, ptr %6, align 4
  %32 = mul nsw i32 %31, 63
  %33 = load i32, ptr %7, align 4
  %34 = mul nsw i32 %33, 63
  %35 = load i32, ptr %4, align 4
  %36 = call noundef i32 @_Z6duRGBAiiii(i32 noundef %30, i32 noundef %32, i32 noundef %34, i32 noundef %35)
  ret i32 %36
}