; Function Attrs: mustprogress nofree norecurse nosync nounwind willreturn memory(none) uwtable
define noundef i32 @_Z10duIntToColii(i32 noundef %0, i32 noundef %1) local_unnamed_addr #0 {
  %3 = lshr i32 %0, 1
  %4 = and i32 %3, 1
  %5 = lshr i32 %0, 2
  %6 = and i32 %5, 2
  %7 = or disjoint i32 %4, %6
  %8 = and i32 %5, 1
  %9 = lshr i32 %0, 3
  %10 = and i32 %9, 2
  %11 = or disjoint i32 %8, %10
  %12 = and i32 %0, 1
  %13 = lshr i32 %0, 4
  %14 = and i32 %13, 2
  %15 = or disjoint i32 %14, %12
  %16 = mul nuw nsw i32 %7, 63
  %17 = add nuw nsw i32 %16, 63
  %18 = mul nuw nsw i32 %11, 16128
  %19 = add nuw nsw i32 %18, 16128
  %20 = mul nuw nsw i32 %15, 4128768
  %21 = add nuw nsw i32 %20, 4128768
  %22 = shl i32 %1, 24
  %23 = or disjoint i32 %17, %22
  %24 = or i32 %23, %19
  %25 = or i32 %24, %21
  ret i32 %25
}